target datalayout = "e-m:e-p270:32:32-p271:32:32-p272:64:64-i64:64-i128:128-f80:128-n8:16:32:64-S128"
target triple = "x86_64-pc-linux-gnu"

; Function Attrs: nounwind uwtable
define internal void @ac3_update_bap_counts_c(ptr noundef %0, ptr noundef %1, i32 noundef %2) #0 {
  %4 = alloca ptr, align 8
  %5 = alloca ptr, align 8
  %6 = alloca i32, align 4
  store ptr %0, ptr %4, align 8, !tbaa !20
  store ptr %1, ptr %5, align 8, !tbaa !56
  store i32 %2, ptr %6, align 4, !tbaa !14
  br label %7

7:                                                ; preds = %11, %3
  %8 = load i32, ptr %6, align 4, !tbaa !14
  %9 = add nsw i32 %8, -1
  store i32 %9, ptr %6, align 4, !tbaa !14
  %10 = icmp sgt i32 %8, 0
  br i1 %10, label %11, label %22

11:                                               ; preds = %7
  %12 = load ptr, ptr %4, align 8, !tbaa !20
  %13 = load ptr, ptr %5, align 8, !tbaa !56
  %14 = load i32, ptr %6, align 4, !tbaa !14
  %15 = sext i32 %14 to i64
  %16 = getelementptr inbounds i8, ptr %13, i64 %15
  %17 = load i8, ptr %16, align 1, !tbaa !58
  %18 = zext i8 %17 to i64
  %19 = getelementptr inbounds nuw i16, ptr %12, i64 %18
  %20 = load i16, ptr %19, align 2, !tbaa !22
  %21 = add i16 %20, 1
  store i16 %21, ptr %19, align 2, !tbaa !22
  br label %7, !llvm.loop !64

22:                                               ; preds = %7
  ret void
}