; Function Attrs: nofree norecurse nosync nounwind memory(argmem: readwrite) uwtable
define internal void @ac3_update_bap_counts_c(ptr noundef captures(none) %0, ptr noundef readonly captures(none) %1, i32 noundef %2) #3 {
  %4 = icmp sgt i32 %2, 0
  br i1 %4, label %.lr.ph.preheader, label %._crit_edge

.lr.ph.preheader:                                 ; preds = %3
  %5 = zext nneg i32 %2 to i64
  br label %.lr.ph

.lr.ph:                                           ; preds = %.lr.ph.preheader, %.lr.ph
  %indvars.iv = phi i64 [ %5, %.lr.ph.preheader ], [ %indvars.iv.next, %.lr.ph ]
  %indvars.iv.next = add nsw i64 %indvars.iv, -1
  %6 = getelementptr inbounds nuw i8, ptr %1, i64 %indvars.iv.next
  %7 = load i8, ptr %6, align 1, !tbaa !45
  %8 = zext i8 %7 to i64
  %9 = getelementptr inbounds nuw i16, ptr %0, i64 %8
  %10 = load i16, ptr %9, align 2, !tbaa !14
  %11 = add i16 %10, 1
  store i16 %11, ptr %9, align 2, !tbaa !14
  %12 = icmp samesign ugt i64 %indvars.iv, 1
  br i1 %12, label %.lr.ph, label %._crit_edge, !llvm.loop !51

._crit_edge:                                      ; preds = %.lr.ph, %3
  ret void
}